target datalayout = "e-m:e-p270:32:32-p271:32:32-p272:64:64-i64:64-i128:128-f80:128-n8:16:32:64-S128"
target triple = "x86_64-pc-linux-gnu"

%struct.H5O_t = type { %struct.H5C_cache_entry_t, i64, i64, i8, i64, i8, i32, i8, i8, i64, i64, i64, i64, i32, i32, i64, i64, ptr, i64, i64, i64, i64, ptr, i8, ptr }
%struct.H5C_cache_entry_t = type { ptr, i64, i64, ptr, i8, ptr, i8, i8, i8, i8, i32, i8, i8, i8, i8, i8, i32, ptr, i32, i32, i32, i32, i32, i8, i8, ptr, ptr, ptr, ptr, ptr, ptr, i8, i32, i8, i64, ptr, i64, i64, i32, i8, i32, i32, i8, ptr, ptr, ptr }
%struct.H5O_chunk_t = type { i64, i64, i64, ptr, ptr }
%struct.H5O_chunk_proxy_t = type { %struct.H5C_cache_entry_t, ptr, ptr, i32, ptr }

@H5O_init_g = external global i8, align 1
@H5_libterm_g = external global i8, align 1
@.str.3 = private unnamed_addr constant [102 x i8] c"generated/home/dtcxzyw/WorkSpace/Projects/compilers/llvm-opt-benchmark/bench/hdf5/hdf5/src/H5Ocache.c\00", align 1
@H5E_OHDR_g = external global i64, align 8
@H5E_OVERFLOW_g = external global i64, align 8
@H5E_CANTSERIALIZE_g = external global i64, align 8
@__func__.H5O__cache_chk_serialize = private unnamed_addr constant [25 x i8] c"H5O__cache_chk_serialize\00", align 1
@.str.45 = private unnamed_addr constant [53 x i8] c"unable to serialize object header continuation chunk\00", align 1
@.str.46 = private unnamed_addr constant [25 x i8] c"buffer overflow detected\00", align 1

; Function Attrs: nounwind uwtable
define internal i32 @H5O__cache_chk_serialize(ptr noundef %0, ptr noundef %1, i64 noundef %2, ptr noundef %3) #0 {
  %5 = alloca ptr, align 8
  %6 = alloca ptr, align 8
  %7 = alloca i64, align 8
  %8 = alloca ptr, align 8
  %9 = alloca ptr, align 8
  %10 = alloca i32, align 4
  %11 = alloca i8, align 1
  store ptr %0, ptr %5, align 8, !tbaa !55
  store ptr %1, ptr %6, align 8, !tbaa !3
  store i64 %2, ptr %7, align 8, !tbaa !13
  store ptr %3, ptr %8, align 8, !tbaa !3
  call void @llvm.lifetime.start.p0(i64 8, ptr %9) #7
  %12 = load ptr, ptr %8, align 8, !tbaa !3
  store ptr %12, ptr %9, align 8, !tbaa !79
  call void @llvm.lifetime.start.p0(i64 4, ptr %10) #7
  store i32 0, ptr %10, align 4, !tbaa !17
  call void @llvm.lifetime.start.p0(i64 1, ptr %11) #7
  store i8 0, ptr %11, align 1, !tbaa !9
  %13 = load i8, ptr @H5O_init_g, align 1, !tbaa !9, !range !11, !noundef !12
  %14 = trunc i8 %13 to i1
  br i1 %14, label %19, label %15

15:                                               ; preds = %4
  %16 = load i8, ptr @H5_libterm_g, align 1, !tbaa !9, !range !11, !noundef !12
  %17 = trunc i8 %16 to i1
  %18 = xor i1 %17, true
  br label %19

19:                                               ; preds = %15, %4
  %20 = phi i1 [ true, %4 ], [ %18, %15 ]
  %21 = xor i1 %20, true
  %22 = xor i1 %21, true
  %23 = zext i1 %22 to i32
  %24 = sext i32 %23 to i64
  %25 = call i64 @llvm.expect.i64(i64 %24, i64 1)
  %26 = icmp ne i64 %25, 0
  br i1 %26, label %27, label %106

27:                                               ; preds = %19
  %28 = load ptr, ptr %5, align 8, !tbaa !55
  %29 = load ptr, ptr %9, align 8, !tbaa !79
  %30 = getelementptr inbounds nuw %struct.H5O_chunk_proxy_t, ptr %29, i32 0, i32 2
  %31 = load ptr, ptr %30, align 8, !tbaa !86
  %32 = load ptr, ptr %9, align 8, !tbaa !79
  %33 = getelementptr inbounds nuw %struct.H5O_chunk_proxy_t, ptr %32, i32 0, i32 3
  %34 = load i32, ptr %33, align 8, !tbaa !83
  %35 = call i32 @H5O__chunk_serialize(ptr noundef %28, ptr noundef %31, i32 noundef %34)
  %36 = icmp slt i32 %35, 0
  br i1 %36, label %37, label %56

37:                                               ; preds = %27
  br label %38

38:                                               ; preds = %37
  br label %39

39:                                               ; preds = %38
  br label %40

40:                                               ; preds = %39
  %41 = load i64, ptr @H5E_OHDR_g, align 8, !tbaa !13
  %42 = load i64, ptr @H5E_CANTSERIALIZE_g, align 8, !tbaa !13
  %43 = call i32 (ptr, ptr, i32, i64, i64, ptr, ...) @H5E_printf_stack(ptr noundef @.str.3, ptr noundef @__func__.H5O__cache_chk_serialize, i32 noundef 779, i64 noundef %41, i64 noundef %42, ptr noundef @.str.45)
  br label %44

44:                                               ; preds = %40
  br label %45

45:                                               ; preds = %44
  store i8 1, ptr %11, align 1, !tbaa !9
  %46 = load i8, ptr %11, align 1, !tbaa !9, !range !11, !noundef !12
  %47 = trunc i8 %46 to i1
  %48 = zext i1 %47 to i8
  store i8 %48, ptr %11, align 1, !tbaa !9
  br label %49

49:                                               ; preds = %45
  br label %50

50:                                               ; preds = %49
  br label %51

51:                                               ; preds = %50
  store i32 -1, ptr %10, align 4, !tbaa !17
  br label %105

52:                                               ; No predecessors!
  br label %53

53:                                               ; preds = %52
  br label %54

54:                                               ; preds = %53
  br label %55

55:                                               ; preds = %54
  br label %56

56:                                               ; preds = %55, %27
  %57 = load i64, ptr %7, align 8, !tbaa !13
  %58 = load ptr, ptr %9, align 8, !tbaa !79
  %59 = getelementptr inbounds nuw %struct.H5O_chunk_proxy_t, ptr %58, i32 0, i32 2
  %60 = load ptr, ptr %59, align 8, !tbaa !86
  %61 = getelementptr inbounds nuw %struct.H5O_t, ptr %60, i32 0, i32 22
  %62 = load ptr, ptr %61, align 8, !tbaa !51
  %63 = load ptr, ptr %9, align 8, !tbaa !79
  %64 = getelementptr inbounds nuw %struct.H5O_chunk_proxy_t, ptr %63, i32 0, i32 3
  %65 = load i32, ptr %64, align 8, !tbaa !83
  %66 = zext i32 %65 to i64
  %67 = getelementptr inbounds nuw %struct.H5O_chunk_t, ptr %62, i64 %66
  %68 = getelementptr inbounds nuw %struct.H5O_chunk_t, ptr %67, i32 0, i32 1
  %69 = load i64, ptr %68, align 8, !tbaa !52
  %70 = icmp ugt i64 %57, %69
  br i1 %70, label %71, label %90

71:                                               ; preds = %56
  br label %72

72:                                               ; preds = %71
  br label %73

73:                                               ; preds = %72
  br label %74

74:                                               ; preds = %73
  %75 = load i64, ptr @H5E_OHDR_g, align 8, !tbaa !13
  %76 = load i64, ptr @H5E_OVERFLOW_g, align 8, !tbaa !13
  %77 = call i32 (ptr, ptr, i32, i64, i64, ptr, ...) @H5E_printf_stack(ptr noundef @.str.3, ptr noundef @__func__.H5O__cache_chk_serialize, i32 noundef 786, i64 noundef %75, i64 noundef %76, ptr noundef @.str.46)
  br label %78

78:                                               ; preds = %74
  br label %79

79:                                               ; preds = %78
  store i8 1, ptr %11, align 1, !tbaa !9
  %80 = load i8, ptr %11, align 1, !tbaa !9, !range !11, !noundef !12
  %81 = trunc i8 %80 to i1
  %82 = zext i1 %81 to i8
  store i8 %82, ptr %11, align 1, !tbaa !9
  br label %83

83:                                               ; preds = %79
  br label %84

84:                                               ; preds = %83
  br label %85

85:                                               ; preds = %84
  store i32 -1, ptr %10, align 4, !tbaa !17
  br label %105

86:                                               ; No predecessors!
  br label %87

87:                                               ; preds = %86
  br label %88

88:                                               ; preds = %87
  br label %89

89:                                               ; preds = %88
  br label %90

90:                                               ; preds = %89, %56
  %91 = load ptr, ptr %6, align 8, !tbaa !3
  %92 = load ptr, ptr %9, align 8, !tbaa !79
  %93 = getelementptr inbounds nuw %struct.H5O_chunk_proxy_t, ptr %92, i32 0, i32 2
  %94 = load ptr, ptr %93, align 8, !tbaa !86
  %95 = getelementptr inbounds nuw %struct.H5O_t, ptr %94, i32 0, i32 22
  %96 = load ptr, ptr %95, align 8, !tbaa !51
  %97 = load ptr, ptr %9, align 8, !tbaa !79
  %98 = getelementptr inbounds nuw %struct.H5O_chunk_proxy_t, ptr %97, i32 0, i32 3
  %99 = load i32, ptr %98, align 8, !tbaa !83
  %100 = zext i32 %99 to i64
  %101 = getelementptr inbounds nuw %struct.H5O_chunk_t, ptr %96, i64 %100
  %102 = getelementptr inbounds nuw %struct.H5O_chunk_t, ptr %101, i32 0, i32 3
  %103 = load ptr, ptr %102, align 8, !tbaa !56
  %104 = load i64, ptr %7, align 8, !tbaa !13
  call void @llvm.memcpy.p0.p0.i64(ptr align 1 %91, ptr align 1 %103, i64 %104, i1 false)
  br label %105

105:                                              ; preds = %90, %85, %51
  br label %106

106:                                              ; preds = %105, %19
  %107 = load i32, ptr %10, align 4, !tbaa !17
  call void @llvm.lifetime.end.p0(i64 1, ptr %11) #7
  call void @llvm.lifetime.end.p0(i64 4, ptr %10) #7
  call void @llvm.lifetime.end.p0(i64 8, ptr %9) #7
  ret i32 %107
}