; Function Attrs: nounwind uwtable
define internal range(i32 -1, 1) i32 @H5O__cache_chk_serialize(ptr noundef %0, ptr noundef writeonly captures(none) %1, i64 noundef %2, ptr noundef readonly captures(none) %3) #1 {
  %5 = load i8, ptr @H5O_init_g, align 1, !tbaa !3, !range !7, !noundef !8
  %6 = trunc nuw i8 %5 to i1
  %7 = load i8, ptr @H5_libterm_g, align 1, !range !7
  %8 = trunc nuw i8 %7 to i1
  %9 = xor i1 %8, true
  %10 = select i1 %6, i1 true, i1 %9
  br i1 %10, label %11, label %39, !prof !9

11:                                               ; preds = %4
  %12 = getelementptr inbounds nuw i8, ptr %3, i64 256
  %13 = load ptr, ptr %12, align 8, !tbaa !74
  %14 = getelementptr inbounds nuw i8, ptr %3, i64 264
  %15 = load i32, ptr %14, align 8, !tbaa !71
  %16 = tail call fastcc i32 @H5O__chunk_serialize(ptr noundef %0, ptr noundef %13, i32 noundef %15)
  %17 = icmp slt i32 %16, 0
  br i1 %17, label %18, label %22

18:                                               ; preds = %11
  %19 = load i64, ptr @H5E_OHDR_g, align 8, !tbaa !10
  %20 = load i64, ptr @H5E_CANTSERIALIZE_g, align 8, !tbaa !10
  %21 = tail call i32 (ptr, ptr, i32, i64, i64, ptr, ...) @H5E_printf_stack(ptr noundef nonnull @.str.3, ptr noundef nonnull @__func__.H5O__cache_chk_serialize, i32 noundef 779, i64 noundef %19, i64 noundef %20, ptr noundef nonnull @.str.45) #9
  br label %39

22:                                               ; preds = %11
  %23 = load ptr, ptr %12, align 8, !tbaa !74
  %24 = getelementptr inbounds nuw i8, ptr %23, i64 392
  %25 = load ptr, ptr %24, align 8, !tbaa !43
  %26 = load i32, ptr %14, align 8, !tbaa !71
  %27 = zext i32 %26 to i64
  %28 = getelementptr inbounds nuw %struct.H5O_chunk_t, ptr %25, i64 %27
  %29 = getelementptr inbounds nuw i8, ptr %28, i64 8
  %30 = load i64, ptr %29, align 8, !tbaa !44
  %31 = icmp ugt i64 %2, %30
  br i1 %31, label %32, label %36

32:                                               ; preds = %22
  %33 = load i64, ptr @H5E_OHDR_g, align 8, !tbaa !10
  %34 = load i64, ptr @H5E_OVERFLOW_g, align 8, !tbaa !10
  %35 = tail call i32 (ptr, ptr, i32, i64, i64, ptr, ...) @H5E_printf_stack(ptr noundef nonnull @.str.3, ptr noundef nonnull @__func__.H5O__cache_chk_serialize, i32 noundef 786, i64 noundef %33, i64 noundef %34, ptr noundef nonnull @.str.46) #9
  br label %39

36:                                               ; preds = %22
  %37 = getelementptr inbounds nuw i8, ptr %28, i64 24
  %38 = load ptr, ptr %37, align 8, !tbaa !48
  tail call void @llvm.memcpy.p0.p0.i64(ptr align 1 %1, ptr align 1 %38, i64 %2, i1 false)
  br label %39

39:                                               ; preds = %18, %32, %36, %4
  %.0 = phi i32 [ -1, %18 ], [ -1, %32 ], [ 0, %36 ], [ 0, %4 ]
  ret i32 %.0
}